; ModuleID = 'source-C-CXX/24/45.cpp'
source_filename = "source-C-CXX/24/45.cpp"
target datalayout = "e-m:e-p270:32:32-p271:32:32-p272:64:64-i64:64-f80:128-n8:16:32:64-S128"
target triple = "x86_64-pc-linux-gnu"

%"class.std::ios_base::Init" = type { i8 }
%"class.std::basic_istream" = type { i32 (...)**, i64, %"class.std::basic_ios" }
%"class.std::basic_ios" = type { %"class.std::ios_base", %"class.std::basic_ostream"*, i8, i8, %"class.std::basic_streambuf"*, %"class.std::ctype"*, %"class.std::num_put"*, %"class.std::num_get"* }
%"class.std::ios_base" = type { i32 (...)**, i64, i64, i32, i32, i32, %"struct.std::ios_base::_Callback_list"*, %"struct.std::ios_base::_Words", [8 x %"struct.std::ios_base::_Words"], i32, %"struct.std::ios_base::_Words"*, %"class.std::locale" }
%"struct.std::ios_base::_Callback_list" = type { %"struct.std::ios_base::_Callback_list"*, void (i32, %"class.std::ios_base"*, i32)*, i32, i32 }
%"struct.std::ios_base::_Words" = type { i8*, i64 }
%"class.std::locale" = type { %"class.std::locale::_Impl"* }
%"class.std::locale::_Impl" = type { i32, %"class.std::locale::facet"**, i64, %"class.std::locale::facet"**, i8** }
%"class.std::locale::facet" = type <{ i32 (...)**, i32, [4 x i8] }>
%"class.std::basic_ostream" = type { i32 (...)**, %"class.std::basic_ios" }
%"class.std::basic_streambuf" = type { i32 (...)**, i8*, i8*, i8*, i8*, i8*, i8*, %"class.std::locale" }
%"class.std::ctype" = type <{ %"class.std::locale::facet.base", [4 x i8], %struct.__locale_struct*, i8, [7 x i8], i32*, i32*, i16*, i8, [256 x i8], [256 x i8], i8, [6 x i8] }>
%"class.std::locale::facet.base" = type <{ i32 (...)**, i32 }>
%struct.__locale_struct = type { [13 x %struct.__locale_data*], i16*, i32*, i32*, [13 x i8*] }
%struct.__locale_data = type opaque
%"class.std::num_put" = type { %"class.std::locale::facet.base", [4 x i8] }
%"class.std::num_get" = type { %"class.std::locale::facet.base", [4 x i8] }

@_ZStL8__ioinit = internal global %"class.std::ios_base::Init" zeroinitializer, align 1
@__dso_handle = external hidden global i8
@_ZSt3cin = external global %"class.std::basic_istream", align 8
@_ZSt4cout = external global %"class.std::basic_ostream", align 8
@llvm.global_ctors = appending global [1 x { i32, void ()*, i8* }] [{ i32, void ()*, i8* } { i32 65535, void ()* @_GLOBAL__sub_I_45.cpp, i8* null }]

declare void @_ZNSt8ios_base4InitC1Ev(%"class.std::ios_base::Init"* nonnull align 1 dereferenceable(1)) unnamed_addr #0

; Function Attrs: nounwind
declare void @_ZNSt8ios_base4InitD1Ev(%"class.std::ios_base::Init"* nonnull align 1 dereferenceable(1)) unnamed_addr #1

; Function Attrs: nofree nounwind
declare i32 @__cxa_atexit(void (i8*)*, i8*, i8*) local_unnamed_addr #2

; Function Attrs: mustprogress norecurse sspstrong uwtable
define dso_local i32 @main() local_unnamed_addr #3 {
  %1 = alloca i32, align 4
  %2 = alloca [1000 x i32], align 16
  %3 = bitcast i32* %1 to i8*
  call void @llvm.lifetime.start.p0i8(i64 4, i8* nonnull %3) #8
  %4 = bitcast [1000 x i32]* %2 to i8*
  call void @llvm.lifetime.start.p0i8(i64 4000, i8* nonnull %4) #8
  %5 = getelementptr inbounds [1000 x i32], [1000 x i32]* %2, i64 0, i64 0
  call void @llvm.memset.p0i8.i64(i8* noundef nonnull align 16 dereferenceable(4000) %4, i8 0, i64 4000, i1 false)
  store i32 1, i32* %5, align 16, !tbaa !5
  %6 = call nonnull align 8 dereferenceable(16) %"class.std::basic_istream"* @_ZNSirsERi(%"class.std::basic_istream"* nonnull align 8 dereferenceable(16) @_ZSt3cin, i32* nonnull align 4 dereferenceable(4) %1)
  %7 = load i32, i32* %1, align 4, !tbaa !5
  %8 = icmp sgt i32 %7, 0
  br i1 %8, label %9, label %44

9:                                                ; preds = %0, %41
  %10 = phi i32 [ %42, %41 ], [ 0, %0 ]
  br label %11

11:                                               ; preds = %97, %9
  %12 = phi i64 [ 0, %9 ], [ %108, %97 ]
  %13 = getelementptr inbounds [1000 x i32], [1000 x i32]* %2, i64 0, i64 %12
  %14 = bitcast i32* %13 to <4 x i32>*
  %15 = load <4 x i32>, <4 x i32>* %14, align 16, !tbaa !5
  %16 = getelementptr inbounds i32, i32* %13, i64 4
  %17 = bitcast i32* %16 to <4 x i32>*
  %18 = load <4 x i32>, <4 x i32>* %17, align 16, !tbaa !5
  %19 = shl nsw <4 x i32> %15, <i32 1, i32 1, i32 1, i32 1>
  %20 = shl nsw <4 x i32> %18, <i32 1, i32 1, i32 1, i32 1>
  %21 = bitcast i32* %13 to <4 x i32>*
  store <4 x i32> %19, <4 x i32>* %21, align 16, !tbaa !5
  %22 = bitcast i32* %16 to <4 x i32>*
  store <4 x i32> %20, <4 x i32>* %22, align 16, !tbaa !5
  %23 = or i64 %12, 8
  %24 = icmp eq i64 %23, 1000
  br i1 %24, label %25, label %97, !llvm.loop !9

25:                                               ; preds = %11, %38
  %26 = phi i64 [ %39, %38 ], [ 0, %11 ]
  %27 = getelementptr inbounds [1000 x i32], [1000 x i32]* %2, i64 0, i64 %26
  %28 = load i32, i32* %27, align 4, !tbaa !5
  %29 = icmp sgt i32 %28, 9
  br i1 %29, label %32, label %30

30:                                               ; preds = %25
  %31 = add nuw nsw i64 %26, 1
  br label %38

32:                                               ; preds = %25
  %33 = urem i32 %28, 10
  store i32 %33, i32* %27, align 4, !tbaa !5
  %34 = add nuw nsw i64 %26, 1
  %35 = getelementptr inbounds [1000 x i32], [1000 x i32]* %2, i64 0, i64 %34
  %36 = load i32, i32* %35, align 4, !tbaa !5
  %37 = add nsw i32 %36, 1
  store i32 %37, i32* %35, align 4, !tbaa !5
  br label %38

38:                                               ; preds = %30, %32
  %39 = phi i64 [ %31, %30 ], [ %34, %32 ]
  %40 = icmp eq i64 %39, 1000
  br i1 %40, label %41, label %25, !llvm.loop !12

41:                                               ; preds = %38
  %42 = add nuw nsw i32 %10, 1
  %43 = icmp eq i32 %42, %7
  br i1 %43, label %44, label %9, !llvm.loop !13

44:                                               ; preds = %41, %0
  br label %45

45:                                               ; preds = %127, %44
  %46 = phi i32 [ 999, %44 ], [ %128, %127 ]
  %47 = zext i32 %46 to i64
  %48 = getelementptr inbounds [1000 x i32], [1000 x i32]* %2, i64 0, i64 %47
  %49 = load i32, i32* %48, align 4, !tbaa !5
  %50 = icmp eq i32 %49, 0
  br i1 %50, label %51, label %57

51:                                               ; preds = %45
  %52 = add nsw i32 %46, -1
  %53 = zext i32 %52 to i64
  %54 = getelementptr inbounds [1000 x i32], [1000 x i32]* %2, i64 0, i64 %53
  %55 = load i32, i32* %54, align 4, !tbaa !5
  %56 = icmp eq i32 %55, 0
  br i1 %56, label %109, label %57

57:                                               ; preds = %121, %115, %109, %51, %45
  %58 = phi i32 [ %46, %45 ], [ %52, %51 ], [ %110, %109 ], [ %116, %115 ], [ %122, %121 ]
  %59 = icmp sgt i32 %58, -1
  br i1 %59, label %60, label %69

60:                                               ; preds = %57
  %61 = zext i32 %58 to i64
  br label %62

62:                                               ; preds = %60, %62
  %63 = phi i64 [ %61, %60 ], [ %68, %62 ]
  %64 = getelementptr inbounds [1000 x i32], [1000 x i32]* %2, i64 0, i64 %63
  %65 = load i32, i32* %64, align 4, !tbaa !5
  %66 = call nonnull align 8 dereferenceable(8) %"class.std::basic_ostream"* @_ZNSolsEi(%"class.std::basic_ostream"* nonnull align 8 dereferenceable(8) @_ZSt4cout, i32 %65)
  %67 = icmp sgt i64 %63, 0
  %68 = add nsw i64 %63, -1
  br i1 %67, label %62, label %69, !llvm.loop !14

69:                                               ; preds = %127, %62, %57
  %70 = load i8*, i8** bitcast (%"class.std::basic_ostream"* @_ZSt4cout to i8**), align 8, !tbaa !15
  %71 = getelementptr i8, i8* %70, i64 -24
  %72 = bitcast i8* %71 to i64*
  %73 = load i64, i64* %72, align 8
  %74 = add nsw i64 %73, 240
  %75 = getelementptr inbounds i8, i8* bitcast (%"class.std::basic_ostream"* @_ZSt4cout to i8*), i64 %74
  %76 = bitcast i8* %75 to %"class.std::ctype"**
  %77 = load %"class.std::ctype"*, %"class.std::ctype"** %76, align 8, !tbaa !17
  %78 = icmp eq %"class.std::ctype"* %77, null
  br i1 %78, label %79, label %80

79:                                               ; preds = %69
  call void @_ZSt16__throw_bad_castv() #9
  unreachable

80:                                               ; preds = %69
  %81 = getelementptr inbounds %"class.std::ctype", %"class.std::ctype"* %77, i64 0, i32 8
  %82 = load i8, i8* %81, align 8, !tbaa !21
  %83 = icmp eq i8 %82, 0
  br i1 %83, label %87, label %84

84:                                               ; preds = %80
  %85 = getelementptr inbounds %"class.std::ctype", %"class.std::ctype"* %77, i64 0, i32 9, i64 10
  %86 = load i8, i8* %85, align 1, !tbaa !23
  br label %93

87:                                               ; preds = %80
  call void @_ZNKSt5ctypeIcE13_M_widen_initEv(%"class.std::ctype"* nonnull align 8 dereferenceable(570) %77)
  %88 = bitcast %"class.std::ctype"* %77 to i8 (%"class.std::ctype"*, i8)***
  %89 = load i8 (%"class.std::ctype"*, i8)**, i8 (%"class.std::ctype"*, i8)*** %88, align 8, !tbaa !15
  %90 = getelementptr inbounds i8 (%"class.std::ctype"*, i8)*, i8 (%"class.std::ctype"*, i8)** %89, i64 6
  %91 = load i8 (%"class.std::ctype"*, i8)*, i8 (%"class.std::ctype"*, i8)** %90, align 8
  %92 = call signext i8 %91(%"class.std::ctype"* nonnull align 8 dereferenceable(570) %77, i8 signext 10)
  br label %93

93:                                               ; preds = %84, %87
  %94 = phi i8 [ %86, %84 ], [ %92, %87 ]
  %95 = call nonnull align 8 dereferenceable(8) %"class.std::basic_ostream"* @_ZNSo3putEc(%"class.std::basic_ostream"* nonnull align 8 dereferenceable(8) @_ZSt4cout, i8 signext %94)
  %96 = call nonnull align 8 dereferenceable(8) %"class.std::basic_ostream"* @_ZNSo5flushEv(%"class.std::basic_ostream"* nonnull align 8 dereferenceable(8) %95)
  call void @llvm.lifetime.end.p0i8(i64 4000, i8* nonnull %4) #8
  call void @llvm.lifetime.end.p0i8(i64 4, i8* nonnull %3) #8
  ret i32 0

97:                                               ; preds = %11
  %98 = getelementptr inbounds [1000 x i32], [1000 x i32]* %2, i64 0, i64 %23
  %99 = bitcast i32* %98 to <4 x i32>*
  %100 = load <4 x i32>, <4 x i32>* %99, align 16, !tbaa !5
  %101 = getelementptr inbounds i32, i32* %98, i64 4
  %102 = bitcast i32* %101 to <4 x i32>*
  %103 = load <4 x i32>, <4 x i32>* %102, align 16, !tbaa !5
  %104 = shl nsw <4 x i32> %100, <i32 1, i32 1, i32 1, i32 1>
  %105 = shl nsw <4 x i32> %103, <i32 1, i32 1, i32 1, i32 1>
  %106 = bitcast i32* %98 to <4 x i32>*
  store <4 x i32> %104, <4 x i32>* %106, align 16, !tbaa !5
  %107 = bitcast i32* %101 to <4 x i32>*
  store <4 x i32> %105, <4 x i32>* %107, align 16, !tbaa !5
  %108 = add nuw nsw i64 %12, 16
  br label %11

109:                                              ; preds = %51
  %110 = add nsw i32 %46, -2
  %111 = zext i32 %110 to i64
  %112 = getelementptr inbounds [1000 x i32], [1000 x i32]* %2, i64 0, i64 %111
  %113 = load i32, i32* %112, align 4, !tbaa !5
  %114 = icmp eq i32 %113, 0
  br i1 %114, label %115, label %57

115:                                              ; preds = %109
  %116 = add nsw i32 %46, -3
  %117 = zext i32 %116 to i64
  %118 = getelementptr inbounds [1000 x i32], [1000 x i32]* %2, i64 0, i64 %117
  %119 = load i32, i32* %118, align 4, !tbaa !5
  %120 = icmp eq i32 %119, 0
  br i1 %120, label %121, label %57

121:                                              ; preds = %115
  %122 = add nsw i32 %46, -4
  %123 = zext i32 %122 to i64
  %124 = getelementptr inbounds [1000 x i32], [1000 x i32]* %2, i64 0, i64 %123
  %125 = load i32, i32* %124, align 4, !tbaa !5
  %126 = icmp eq i32 %125, 0
  br i1 %126, label %127, label %57

127:                                              ; preds = %121
  %128 = add nsw i32 %46, -5
  %129 = icmp eq i32 %122, 0
  br i1 %129, label %69, label %45, !llvm.loop !24
}

; Function Attrs: argmemonly mustprogress nofree nosync nounwind willreturn
declare void @llvm.lifetime.start.p0i8(i64 immarg, i8* nocapture) #4

; Function Attrs: argmemonly mustprogress nofree nounwind willreturn writeonly
declare void @llvm.memset.p0i8.i64(i8* nocapture writeonly, i8, i64, i1 immarg) #5

declare nonnull align 8 dereferenceable(16) %"class.std::basic_istream"* @_ZNSirsERi(%"class.std::basic_istream"* nonnull align 8 dereferenceable(16), i32* nonnull align 4 dereferenceable(4)) local_unnamed_addr #0

; Function Attrs: argmemonly mustprogress nofree nosync nounwind willreturn
declare void @llvm.lifetime.end.p0i8(i64 immarg, i8* nocapture) #4

declare nonnull align 8 dereferenceable(8) %"class.std::basic_ostream"* @_ZNSolsEi(%"class.std::basic_ostream"* nonnull align 8 dereferenceable(8), i32) local_unnamed_addr #0

declare nonnull align 8 dereferenceable(8) %"class.std::basic_ostream"* @_ZNSo3putEc(%"class.std::basic_ostream"* nonnull align 8 dereferenceable(8), i8 signext) local_unnamed_addr #0

declare nonnull align 8 dereferenceable(8) %"class.std::basic_ostream"* @_ZNSo5flushEv(%"class.std::basic_ostream"* nonnull align 8 dereferenceable(8)) local_unnamed_addr #0

; Function Attrs: noreturn
declare void @_ZSt16__throw_bad_castv() local_unnamed_addr #6

declare void @_ZNKSt5ctypeIcE13_M_widen_initEv(%"class.std::ctype"* nonnull align 8 dereferenceable(570)) local_unnamed_addr #0

; Function Attrs: sspstrong uwtable
define internal void @_GLOBAL__sub_I_45.cpp() #7 section ".text.startup" {
  tail call void @_ZNSt8ios_base4InitC1Ev(%"class.std::ios_base::Init"* nonnull align 1 dereferenceable(1) @_ZStL8__ioinit)
  %1 = tail call i32 @__cxa_atexit(void (i8*)* bitcast (void (%"class.std::ios_base::Init"*)* @_ZNSt8ios_base4InitD1Ev to void (i8*)*), i8* getelementptr inbounds (%"class.std::ios_base::Init", %"class.std::ios_base::Init"* @_ZStL8__ioinit, i64 0, i32 0), i8* nonnull @__dso_handle) #8
  ret void
}


!llvm.module.flags = !{!0, !1, !2, !3}
!llvm.ident = !{!4}

!0 = !{i32 1, !"wchar_size", i32 4}
!1 = !{i32 7, !"PIC Level", i32 2}
!2 = !{i32 7, !"PIE Level", i32 2}
!3 = !{i32 7, !"uwtable", i32 1}
!4 = !{!"clang version 13.0.0"}
!5 = !{!6, !6, i64 0}
!6 = !{!"int", !7, i64 0}
!7 = !{!"omnipotent char", !8, i64 0}
!8 = !{!"Simple C++ TBAA"}
!9 = distinct !{!9, !10, !11}
!10 = !{!"llvm.loop.mustprogress"}
!11 = !{!"llvm.loop.isvectorized", i32 1}
!12 = distinct !{!12, !10}
!13 = distinct !{!13, !10}
!14 = distinct !{!14, !10}
!15 = !{!16, !16, i64 0}
!16 = !{!"vtable pointer", !8, i64 0}
!17 = !{!18, !19, i64 240}
!18 = !{!"_ZTSSt9basic_iosIcSt11char_traitsIcEE", !19, i64 216, !7, i64 224, !20, i64 225, !19, i64 232, !19, i64 240, !19, i64 248, !19, i64 256}
!19 = !{!"any pointer", !7, i64 0}
!20 = !{!"bool", !7, i64 0}
!21 = !{!22, !7, i64 56}
!22 = !{!"_ZTSSt5ctypeIcE", !19, i64 16, !20, i64 24, !19, i64 32, !19, i64 40, !19, i64 48, !7, i64 56, !7, i64 57, !7, i64 313, !7, i64 569}
!23 = !{!7, !7, i64 0}
!24 = distinct !{!24, !10}
